target datalayout = "e-m:e-p270:32:32-p271:32:32-p272:64:64-i64:64-i128:128-f80:128-n8:16:32:64-S128"
target triple = "x86_64-pc-linux-gnu"

%struct.jv = type { i8, i8, i16, i32, %union.anon }
%union.anon = type { ptr }
%struct.block = type { ptr, ptr }

@.str.65 = private unnamed_addr constant [33 x i8] c"Cannot use %s (%s) as object key\00", align 1

; Function Attrs: nounwind uwtable
define internal { i64, ptr } @check_object_key(ptr %0, ptr %1) #0 {
  %3 = alloca %struct.jv, align 8
  %4 = alloca %struct.block, align 8
  %5 = alloca [15 x i8], align 1
  %6 = alloca %struct.jv, align 8
  %7 = getelementptr inbounds nuw { ptr, ptr }, ptr %4, i32 0, i32 0
  store ptr %0, ptr %7, align 8
  %8 = getelementptr inbounds nuw { ptr, ptr }, ptr %4, i32 0, i32 1
  store ptr %1, ptr %8, align 8
  %9 = getelementptr inbounds nuw { ptr, ptr }, ptr %4, i32 0, i32 0
  %10 = load ptr, ptr %9, align 8
  %11 = getelementptr inbounds nuw { ptr, ptr }, ptr %4, i32 0, i32 1
  %12 = load ptr, ptr %11, align 8
  %13 = call i32 @block_is_const(ptr %10, ptr %12)
  %14 = icmp ne i32 %13, 0
  br i1 %14, label %15, label %49

15:                                               ; preds = %2
  %16 = getelementptr inbounds nuw { ptr, ptr }, ptr %4, i32 0, i32 0
  %17 = load ptr, ptr %16, align 8
  %18 = getelementptr inbounds nuw { ptr, ptr }, ptr %4, i32 0, i32 1
  %19 = load ptr, ptr %18, align 8
  %20 = call i32 @block_const_kind(ptr %17, ptr %19)
  %21 = icmp ne i32 %20, 5
  br i1 %21, label %22, label %49

22:                                               ; preds = %15
  call void @llvm.lifetime.start.p0(i64 15, ptr %5) #8
  %23 = getelementptr inbounds nuw { ptr, ptr }, ptr %4, i32 0, i32 0
  %24 = load ptr, ptr %23, align 8
  %25 = getelementptr inbounds nuw { ptr, ptr }, ptr %4, i32 0, i32 1
  %26 = load ptr, ptr %25, align 8
  %27 = call i32 @block_const_kind(ptr %24, ptr %26)
  %28 = call ptr @jv_kind_name(i32 noundef %27)
  %29 = getelementptr inbounds nuw { ptr, ptr }, ptr %4, i32 0, i32 0
  %30 = load ptr, ptr %29, align 8
  %31 = getelementptr inbounds nuw { ptr, ptr }, ptr %4, i32 0, i32 1
  %32 = load ptr, ptr %31, align 8
  %33 = call { i64, ptr } @block_const(ptr %30, ptr %32)
  %34 = getelementptr inbounds nuw { i64, ptr }, ptr %6, i32 0, i32 0
  %35 = extractvalue { i64, ptr } %33, 0
  store i64 %35, ptr %34, align 8
  %36 = getelementptr inbounds nuw { i64, ptr }, ptr %6, i32 0, i32 1
  %37 = extractvalue { i64, ptr } %33, 1
  store ptr %37, ptr %36, align 8
  %38 = getelementptr inbounds [15 x i8], ptr %5, i64 0, i64 0
  %39 = getelementptr inbounds nuw { i64, ptr }, ptr %6, i32 0, i32 0
  %40 = load i64, ptr %39, align 8
  %41 = getelementptr inbounds nuw { i64, ptr }, ptr %6, i32 0, i32 1
  %42 = load ptr, ptr %41, align 8
  %43 = call ptr @jv_dump_string_trunc(i64 %40, ptr %42, ptr noundef %38, i64 noundef 15)
  %44 = call { i64, ptr } (ptr, ...) @jv_string_fmt(ptr noundef @.str.65, ptr noundef %28, ptr noundef %43)
  %45 = getelementptr inbounds nuw { i64, ptr }, ptr %3, i32 0, i32 0
  %46 = extractvalue { i64, ptr } %44, 0
  store i64 %46, ptr %45, align 8
  %47 = getelementptr inbounds nuw { i64, ptr }, ptr %3, i32 0, i32 1
  %48 = extractvalue { i64, ptr } %44, 1
  store ptr %48, ptr %47, align 8
  call void @llvm.lifetime.end.p0(i64 15, ptr %5) #8
  br label %55

49:                                               ; preds = %15, %2
  %50 = call { i64, ptr } @jv_invalid()
  %51 = getelementptr inbounds nuw { i64, ptr }, ptr %3, i32 0, i32 0
  %52 = extractvalue { i64, ptr } %50, 0
  store i64 %52, ptr %51, align 8
  %53 = getelementptr inbounds nuw { i64, ptr }, ptr %3, i32 0, i32 1
  %54 = extractvalue { i64, ptr } %50, 1
  store ptr %54, ptr %53, align 8
  br label %55

55:                                               ; preds = %49, %22
  %56 = load { i64, ptr }, ptr %3, align 8
  ret { i64, ptr } %56
}