; Function Attrs: nounwind uwtable
define internal fastcc { i64, ptr } @check_object_key(ptr %0, ptr %1) unnamed_addr #0 {
  %3 = alloca [15 x i8], align 1
  %4 = tail call i32 @block_is_const(ptr %0, ptr %1) #10
  %.not = icmp eq i32 %4, 0
  br i1 %.not, label %15, label %5

5:                                                ; preds = %2
  %6 = tail call i32 @block_const_kind(ptr %0, ptr %1) #10
  %.not9 = icmp eq i32 %6, 5
  br i1 %.not9, label %15, label %7

7:                                                ; preds = %5
  call void @llvm.lifetime.start.p0(i64 15, ptr nonnull %3) #10
  %8 = tail call i32 @block_const_kind(ptr %0, ptr %1) #10
  %9 = tail call ptr @jv_kind_name(i32 noundef %8) #10
  %10 = tail call { i64, ptr } @block_const(ptr %0, ptr %1) #10
  %11 = extractvalue { i64, ptr } %10, 0
  %12 = extractvalue { i64, ptr } %10, 1
  %13 = call ptr @jv_dump_string_trunc(i64 %11, ptr %12, ptr noundef nonnull %3, i64 noundef 15) #10
  %14 = call { i64, ptr } (ptr, ...) @jv_string_fmt(ptr noundef nonnull @.str.65, ptr noundef %9, ptr noundef %13) #10
  call void @llvm.lifetime.end.p0(i64 15, ptr nonnull %3) #10
  br label %17

15:                                               ; preds = %5, %2
  %16 = tail call { i64, ptr } @jv_invalid() #10
  br label %17

17:                                               ; preds = %15, %7
  %.pn = phi { i64, ptr } [ %14, %7 ], [ %16, %15 ]
  ret { i64, ptr } %.pn
}